; Function Attrs: mustprogress uwtable
define void @_ZN7rocksdb2DB18ListColumnFamiliesERKNS_9DBOptionsERKNSt7__cxx1112basic_stringIcSt11char_traitsIcESaIcEEEPSt6vectorIS9_SaIS9_EE(ptr noalias sret(%"class.rocksdb::Status") align 8 %agg.result, ptr nocapture noundef nonnull readonly align 8 dereferenceable(688) %db_options, ptr noundef nonnull align 8 dereferenceable(32) %name, ptr noundef %column_families) local_unnamed_addr #5 align 2 {
entry:
  %env = getelementptr inbounds i8, ptr %db_options, i64 8
  %0 = load ptr, ptr %env, align 8
  %call = tail call noundef nonnull align 8 dereferenceable(16) ptr @_ZNK7rocksdb3Env13GetFileSystemEv(ptr noundef nonnull align 8 dereferenceable(72) %0)
  %1 = load ptr, ptr %call, align 8
  tail call void @_ZN7rocksdb10VersionSet18ListColumnFamiliesEPSt6vectorINSt7__cxx1112basic_stringIcSt11char_traitsIcESaIcEEESaIS7_EERKS7_PNS_10FileSystemE(ptr sret(%"class.rocksdb::Status") align 8 %agg.result, ptr noundef %column_families, ptr noundef nonnull align 8 dereferenceable(32) %name, ptr noundef %1)
  ret void
}